; Function Attrs: nofree norecurse nosync nounwind sspstrong memory(read, argmem: readwrite, inaccessiblemem: none) uwtable
define internal i32 @case_map(ptr noundef captures(none) %0, ptr noundef captures(none) %1, ptr noundef readnone captures(address) %2, ptr noundef %3, ptr noundef readnone captures(address) %4, ptr readnone captures(none) %5) #4 {
  %7 = load i32, ptr %0, align 4, !tbaa !14
  %8 = load ptr, ptr %1, align 8, !tbaa !6
  %9 = icmp ult ptr %8, %2
  %10 = icmp ult ptr %3, %4
  %11 = and i1 %9, %10
  br i1 %11, label %.lr.ph, label %._crit_edge

.lr.ph:                                           ; preds = %6, %49
  %12 = phi ptr [ %53, %49 ], [ %8, %6 ]
  %.054 = phi i32 [ %spec.select, %49 ], [ %7, %6 ]
  %.03853 = phi ptr [ %50, %49 ], [ %3, %6 ]
  %13 = getelementptr inbounds nuw i8, ptr %12, i64 1
  store ptr %13, ptr %1, align 8, !tbaa !6
  %14 = load i8, ptr %12, align 1, !tbaa !11
  %15 = icmp eq i8 %14, -33
  br i1 %15, label %16, label %28

16:                                               ; preds = %.lr.ph
  %17 = and i32 %.054, 8192
  %.not47 = icmp eq i32 %17, 0
  br i1 %.not47, label %23, label %18

18:                                               ; preds = %16
  %19 = or i32 %.054, 262144
  %20 = getelementptr inbounds nuw i8, ptr %.03853, i64 1
  store i8 83, ptr %.03853, align 1, !tbaa !11
  %21 = and i32 %.054, 32768
  %.not49 = icmp eq i32 %21, 0
  %22 = select i1 %.not49, i8 83, i8 115
  br label %49

23:                                               ; preds = %16
  %24 = and i32 %.054, 524288
  %.not48 = icmp eq i32 %24, 0
  br i1 %.not48, label %49, label %25

25:                                               ; preds = %23
  %26 = or i32 %.054, 262144
  %27 = getelementptr inbounds nuw i8, ptr %.03853, i64 1
  store i8 115, ptr %.03853, align 1, !tbaa !11
  br label %49

28:                                               ; preds = %.lr.ph
  %29 = zext i8 %14 to i64
  %30 = getelementptr inbounds nuw [256 x i16], ptr @EncISO_8859_13_CtypeTable, i64 0, i64 %29
  %31 = load i16, ptr %30, align 2, !tbaa !12
  %32 = and i16 %31, 1024
  %.not = icmp eq i16 %32, 0
  %33 = and i32 %.054, 540672
  %.not44 = icmp eq i32 %33, 0
  %or.cond51 = select i1 %.not, i1 true, i1 %.not44
  br i1 %or.cond51, label %38, label %34

34:                                               ; preds = %28
  %35 = or i32 %.054, 262144
  %36 = getelementptr inbounds nuw [256 x i8], ptr @EncISO_8859_13_ToLowerCaseTable, i64 0, i64 %29
  %37 = load i8, ptr %36, align 1, !tbaa !11
  br label %49

38:                                               ; preds = %28
  %39 = icmp eq i8 %14, -75
  br i1 %39, label %49, label %40

40:                                               ; preds = %38
  %41 = and i16 %31, 64
  %.not45 = icmp eq i16 %41, 0
  %42 = and i32 %.054, 8192
  %.not46 = icmp eq i32 %42, 0
  %or.cond52 = select i1 %.not45, i1 true, i1 %.not46
  br i1 %or.cond52, label %49, label %43

43:                                               ; preds = %40
  %44 = or i32 %.054, 262144
  switch i8 %14, label %47 [
    i8 -65, label %45
    i8 -70, label %45
    i8 -72, label %45
  ]

45:                                               ; preds = %43, %43, %43
  %46 = add nsw i8 %14, -16
  br label %49

47:                                               ; preds = %43
  %48 = add i8 %14, -32
  br label %49

49:                                               ; preds = %34, %40, %47, %45, %38, %18, %25, %23
  %.040 = phi i8 [ %22, %18 ], [ 115, %25 ], [ -33, %23 ], [ %37, %34 ], [ -75, %38 ], [ %46, %45 ], [ %48, %47 ], [ %14, %40 ]
  %.139 = phi ptr [ %20, %18 ], [ %27, %25 ], [ %.03853, %23 ], [ %.03853, %34 ], [ %.03853, %38 ], [ %.03853, %45 ], [ %.03853, %47 ], [ %.03853, %40 ]
  %.1 = phi i32 [ %19, %18 ], [ %26, %25 ], [ %.054, %23 ], [ %35, %34 ], [ %.054, %38 ], [ %44, %45 ], [ %44, %47 ], [ %.054, %40 ]
  %50 = getelementptr inbounds nuw i8, ptr %.139, i64 1
  store i8 %.040, ptr %.139, align 1, !tbaa !11
  %51 = and i32 %.1, 32768
  %.not50 = icmp eq i32 %51, 0
  %52 = xor i32 %.1, 57344
  %spec.select = select i1 %.not50, i32 %.1, i32 %52
  %53 = load ptr, ptr %1, align 8, !tbaa !6
  %54 = icmp ult ptr %53, %2
  %55 = icmp ult ptr %50, %4
  %56 = select i1 %54, i1 %55, i1 false
  br i1 %56, label %.lr.ph, label %._crit_edge, !llvm.loop !16

._crit_edge:                                      ; preds = %49, %6
  %.038.lcssa = phi ptr [ %3, %6 ], [ %50, %49 ]
  %.0.lcssa = phi i32 [ %7, %6 ], [ %spec.select, %49 ]
  store i32 %.0.lcssa, ptr %0, align 4, !tbaa !14
  %57 = ptrtoint ptr %.038.lcssa to i64
  %58 = ptrtoint ptr %3 to i64
  %59 = sub i64 %57, %58
  %60 = trunc i64 %59 to i32
  ret i32 %60
}